target datalayout = "e-m:e-p270:32:32-p271:32:32-p272:64:64-i64:64-i128:128-f80:128-n8:16:32:64-S128"
target triple = "x86_64-pc-linux-gnu"

%struct.timeval = type { i64, i64 }

@plugin_type = dso_local constant [9 x i8] c"gpu/nvml\00", align 1
@init_pid = internal global i32 0, align 4
@.str.21 = private unnamed_addr constant [45 x i8] c"%s: %s: nvmlShutdown() took %ld microseconds\00", align 1
@__func__._nvml_shutdown = private unnamed_addr constant [15 x i8] c"_nvml_shutdown\00", align 1
@.str.22 = private unnamed_addr constant [29 x i8] c"Failed to shut down NVML: %s\00", align 1
@.str.23 = private unnamed_addr constant [36 x i8] c"%s: %s: Successfully shut down NVML\00", align 1

; Function Attrs: nounwind uwtable
define internal void @_nvml_shutdown() #0 {
  %1 = alloca i32, align 4
  %2 = alloca %struct.timeval, align 8
  %3 = alloca %struct.timeval, align 8
  %4 = alloca [20 x i8], align 16
  %5 = alloca i64, align 8
  call void @llvm.lifetime.start.p0(i64 4, ptr %1) #7
  call void @llvm.lifetime.start.p0(i64 16, ptr %2) #7
  call void @llvm.lifetime.start.p0(i64 16, ptr %3) #7
  call void @llvm.lifetime.start.p0(i64 20, ptr %4) #7
  call void @llvm.memset.p0.i64(ptr align 16 %4, i8 0, i64 20, i1 false)
  call void @llvm.lifetime.start.p0(i64 8, ptr %5) #7
  %6 = call i32 @gettimeofday(ptr noundef %2, ptr noundef null) #7
  %7 = call i32 @nvmlShutdown()
  store i32 %7, ptr %1, align 4
  store i32 0, ptr @init_pid, align 4
  br label %8

8:                                                ; preds = %0
  %9 = call i32 @gettimeofday(ptr noundef %3, ptr noundef null) #7
  %10 = getelementptr inbounds [20 x i8], ptr %4, i64 0, i64 0
  call void @slurm_diff_tv_str(ptr noundef %2, ptr noundef %3, ptr noundef %10, i32 noundef 20, ptr noundef null, i64 noundef 0, ptr noundef %5)
  br label %11

11:                                               ; preds = %8
  br label %12

12:                                               ; preds = %11
  br label %13

13:                                               ; preds = %12
  br label %14

14:                                               ; preds = %13
  %15 = call i32 @slurm_get_log_level()
  %16 = icmp sge i32 %15, 7
  br i1 %16, label %17, label %19

17:                                               ; preds = %14
  %18 = load i64, ptr %5, align 8
  call void (i32, ptr, ...) @slurm_log_var(i32 noundef 7, ptr noundef @.str.21, ptr noundef @plugin_type, ptr noundef @__func__._nvml_shutdown, i64 noundef %18)
  br label %19

19:                                               ; preds = %17, %14
  br label %20

20:                                               ; preds = %19
  br label %21

21:                                               ; preds = %20
  br label %22

22:                                               ; preds = %21
  br label %23

23:                                               ; preds = %22
  %24 = load i32, ptr %1, align 4
  %25 = icmp ne i32 %24, 0
  br i1 %25, label %26, label %30

26:                                               ; preds = %23
  %27 = load i32, ptr %1, align 4
  %28 = call ptr @nvmlErrorString(i32 noundef %27)
  %29 = call i32 (ptr, ...) @slurm_error(ptr noundef @.str.22, ptr noundef %28)
  br label %41

30:                                               ; preds = %23
  br label %31

31:                                               ; preds = %30
  br label %32

32:                                               ; preds = %31
  %33 = call i32 @slurm_get_log_level()
  %34 = icmp sge i32 %33, 6
  br i1 %34, label %35, label %36

35:                                               ; preds = %32
  call void (i32, ptr, ...) @slurm_log_var(i32 noundef 6, ptr noundef @.str.23, ptr noundef @plugin_type, ptr noundef @__func__._nvml_shutdown)
  br label %36

36:                                               ; preds = %35, %32
  br label %37

37:                                               ; preds = %36
  br label %38

38:                                               ; preds = %37
  br label %39

39:                                               ; preds = %38
  br label %40

40:                                               ; preds = %39
  br label %41

41:                                               ; preds = %40, %26
  call void @llvm.lifetime.end.p0(i64 8, ptr %5) #7
  call void @llvm.lifetime.end.p0(i64 20, ptr %4) #7
  call void @llvm.lifetime.end.p0(i64 16, ptr %3) #7
  call void @llvm.lifetime.end.p0(i64 16, ptr %2) #7
  call void @llvm.lifetime.end.p0(i64 4, ptr %1) #7
  ret void
}