; Function Attrs: nounwind uwtable
define internal fastcc void @_nvml_shutdown() unnamed_addr #0 {
  %1 = alloca %struct.timeval, align 8
  %2 = alloca %struct.timeval, align 8
  %3 = alloca [20 x i8], align 16
  %4 = alloca i64, align 8
  call void @llvm.lifetime.start.p0(i64 16, ptr nonnull %1) #12
  call void @llvm.lifetime.start.p0(i64 16, ptr nonnull %2) #12
  call void @llvm.lifetime.start.p0(i64 20, ptr nonnull %3) #12
  call void @llvm.memset.p0.i64(ptr noundef nonnull align 16 dereferenceable(20) %3, i8 0, i64 20, i1 false)
  call void @llvm.lifetime.start.p0(i64 8, ptr nonnull %4) #12
  %5 = call i32 @gettimeofday(ptr noundef nonnull %1, ptr noundef null) #12
  %6 = tail call i32 @nvmlShutdown() #12
  store i32 0, ptr @init_pid, align 4
  %7 = call i32 @gettimeofday(ptr noundef nonnull %2, ptr noundef null) #12
  call void @slurm_diff_tv_str(ptr noundef nonnull %1, ptr noundef nonnull %2, ptr noundef nonnull %3, i32 noundef 20, ptr noundef null, i64 noundef 0, ptr noundef nonnull %4) #12
  %8 = call i32 @slurm_get_log_level() #12
  %9 = icmp sgt i32 %8, 6
  br i1 %9, label %10, label %12

10:                                               ; preds = %0
  %11 = load i64, ptr %4, align 8
  call void (i32, ptr, ...) @slurm_log_var(i32 noundef 7, ptr noundef nonnull @.str.21, ptr noundef nonnull @plugin_type, ptr noundef nonnull @__func__._nvml_shutdown, i64 noundef %11) #12
  br label %12

12:                                               ; preds = %10, %0
  %.not = icmp eq i32 %6, 0
  br i1 %.not, label %16, label %13

13:                                               ; preds = %12
  %14 = call ptr @nvmlErrorString(i32 noundef %6) #12
  %15 = call i32 (ptr, ...) @slurm_error(ptr noundef nonnull @.str.22, ptr noundef %14) #12
  br label %20

16:                                               ; preds = %12
  %17 = call i32 @slurm_get_log_level() #12
  %18 = icmp sgt i32 %17, 5
  br i1 %18, label %19, label %20

19:                                               ; preds = %16
  call void (i32, ptr, ...) @slurm_log_var(i32 noundef 6, ptr noundef nonnull @.str.23, ptr noundef nonnull @plugin_type, ptr noundef nonnull @__func__._nvml_shutdown) #12
  br label %20

20:                                               ; preds = %16, %19, %13
  call void @llvm.lifetime.end.p0(i64 8, ptr nonnull %4) #12
  call void @llvm.lifetime.end.p0(i64 20, ptr nonnull %3) #12
  call void @llvm.lifetime.end.p0(i64 16, ptr nonnull %2) #12
  call void @llvm.lifetime.end.p0(i64 16, ptr nonnull %1) #12
  ret void
}